; Function Attrs: cold mustprogress nofree norecurse nosync nounwind optsize willreturn memory(write, argmem: readwrite, inaccessiblemem: none) uwtable
define internal noundef i32 @init_setrange(ptr noundef readonly captures(none) %0) #1 {
  %2 = getelementptr inbounds nuw i8, ptr %0, i64 72
  %3 = load ptr, ptr %2, align 8, !tbaa !4
  %4 = getelementptr inbounds nuw i8, ptr %3, i64 8
  store i32 -1, ptr %4, align 8, !tbaa !25
  %5 = getelementptr inbounds nuw i8, ptr %3, i64 16
  tail call void @llvm.memset.p0.i64(ptr noundef nonnull align 8 dereferenceable(16) %5, i8 -1, i64 16, i1 false)
  ret i32 0
}